(dp0
I0
(lp1
I-6
aI11
asI1
(lp2
I-6
aI11
asI2
(lp3
I-6
aI11
asI3
(lp4
I-6
aI11
asI4
(lp5
I-6
aI11
asI5
(lp6
I-6
aI12
asI6
(lp7
I-6
aI12
asI7
(lp8
I-6
aI12
asI8
(lp9
I-6
aI12
asI9
(lp10
I-6
aI12
asI10
(lp11
I-6
aI12
asI11
(lp12
I-6
aI12
asI12
(lp13
I-6
aI12
asI13
(lp14
I-6
aI12
asI14
(lp15
I-6
aI12
asI15
(lp16
I-6
aI12
asI16
(lp17
I-6
aI12
asI17
(lp18
I-6
aI13
asI18
(lp19
I-7
aI13
asI19
(lp20
I-7
aI14
asI20
(lp21
I-7
aI14
asI21
(lp22
I-7
aI14
asI22
(lp23
I-7
aI14
asI23
(lp24
I-7
aI14
asI24
(lp25
I-7
aI13
asI25
(lp26
I-7
aI14
asI26
(lp27
I-7
aI14
asI27
(lp28
I-7
aI14
asI28
(lp29
I-7
aI14
asI29
(lp30
I-7
aI14
asI30
(lp31
I-7
aI15
asI31
(lp32
I-7
aI15
asI32
(lp33
I-7
aI14
asI33
(lp34
I-6
aI13
asI34
(lp35
I-6
aI12
asI35
(lp36
I-6
aI11
asI36
(lp37
I-6
aI11
asI37
(lp38
I-6
aI11
asI38
(lp39
I-6
aI11
asI39
(lp40
I-6
aI11
asI40
(lp41
I-6
aI11
asI41
(lp42
I-6
aI11
asI42
(lp43
I-6
aI11
asI43
(lp44
I-6
aI10
asI44
(lp45
I-6
aI10
asI45
(lp46
I-6
aI10
asI46
(lp47
I-6
aI10
asI47
(lp48
I-6
aI10
asI48
(lp49
I-6
aI10
asI49
(lp50
I-6
aI10
asI50
(lp51
I-6
aI10
asI51
(lp52
I-5
aI9
asI52
(lp53
I-5
aI9
asI53
(lp54
I-5
aI9
asI54
(lp55
I-5
aI8
asI55
(lp56
I-5
aI8
asI56
(lp57
I-5
aI8
asI57
(lp58
I-5
aI8
asI58
(lp59
I-5
aI8
asI59
(lp60
I-5
aI8
asI60
(lp61
I-5
aI8
asI61
(lp62
I-5
aI8
asI62
(lp63
I-5
aI8
asI63
(lp64
I-5
aI8
asI64
(lp65
I-5
aI8
asI65
(lp66
I-5
aI8
asI66
(lp67
I-5
aI8
asI67
(lp68
I-5
aI8
asI68
(lp69
I-5
aI8
asI69
(lp70
I-5
aI8
asI70
(lp71
I-5
aI8
asI71
(lp72
I-5
aI8
asI72
(lp73
I-5
aI9
asI73
(lp74
I-5
aI9
asI74
(lp75
I-5
aI9
asI75
(lp76
I-6
aI10
asI76
(lp77
I-6
aI11
asI77
(lp78
I-6
aI11
asI78
(lp79
I-6
aI11
asI79
(lp80
I-6
aI11
asI80
(lp81
I-6
aI10
asI81
(lp82
I-6
aI10
asI82
(lp83
I-6
aI11
asI83
(lp84
I-6
aI11
asI84
(lp85
I-7
aI11
asI85
(lp86
I-6
aI11
asI86
(lp87
I-7
aI11
asI87
(lp88
I-7
aI11
asI88
(lp89
I-7
aI11
asI89
(lp90
I-7
aI12
asI90
(lp91
I-7
aI12
asI91
(lp92
I-7
aI12
asI92
(lp93
I-7
aI12
asI93
(lp94
I-7
aI11
asI94
(lp95
I-7
aI11
asI95
(lp96
I-7
aI11
asI96
(lp97
I-7
aI11
asI97
(lp98
I-7
aI11
asI98
(lp99
I-7
aI11
asI99
(lp100
I-6
aI10
asI100
(lp101
I-6
aI10
asI101
(lp102
I-6
aI11
asI102
(lp103
I-6
aI10
asI103
(lp104
I-6
aI10
asI104
(lp105
I-6
aI10
asI105
(lp106
I-6
aI10
asI106
(lp107
I-6
aI10
asI107
(lp108
I-6
aI10
asI108
(lp109
I-7
aI11
asI109
(lp110
I-7
aI11
asI110
(lp111
I-7
aI11
asI111
(lp112
I-7
aI12
asI112
(lp113
I-7
aI12
asI113
(lp114
I-7
aI11
asI114
(lp115
I-6
aI10
asI115
(lp116
I-6
aI10
asI116
(lp117
I-6
aI10
asI117
(lp118
I-6
aI10
asI118
(lp119
I-6
aI10
asI119
(lp120
I-6
aI10
asI120
(lp121
I-6
aI10
asI121
(lp122
I-6
aI9
asI122
(lp123
I-6
aI10
asI123
(lp124
I-6
aI10
asI124
(lp125
I-6
aI10
asI125
(lp126
I-6
aI10
asI126
(lp127
I-6
aI9
asI127
(lp128
I-6
aI10
asI128
(lp129
I-6
aI10
asI129
(lp130
I-6
aI10
asI130
(lp131
I-6
aI10
asI131
(lp132
I-6
aI10
asI132
(lp133
I-6
aI10
asI133
(lp134
I-6
aI11
asI134
(lp135
I-6
aI11
asI135
(lp136
I-6
aI11
asI136
(lp137
I-6
aI11
asI137
(lp138
I-6
aI11
asI138
(lp139
I-6
aI10
asI139
(lp140
I-6
aI10
asI140
(lp141
I-6
aI10
asI141
(lp142
I-7
aI11
asI142
(lp143
I-7
aI11
asI143
(lp144
I-6
aI10
asI144
(lp145
I-6
aI10
asI145
(lp146
I-7
aI11
asI146
(lp147
I-7
aI11
asI147
(lp148
I-7
aI10
asI148
(lp149
I-6
aI9
asI149
(lp150
I-6
aI9
asI150
(lp151
I-6
aI9
asI151
(lp152
I-6
aI9
asI152
(lp153
I-6
aI8
asI153
(lp154
I-6
aI8
asI154
(lp155
I-6
aI7
asI155
(lp156
I-6
aI7
asI156
(lp157
I-6
aI8
asI157
(lp158
I-6
aI8
asI158
(lp159
I-6
aI8
asI159
(lp160
I-6
aI9
asI160
(lp161
I-6
aI9
asI161
(lp162
I-6
aI9
asI162
(lp163
I-6
aI9
asI163
(lp164
I-6
aI9
asI164
(lp165
I-6
aI9
asI165
(lp166
I-6
aI9
asI166
(lp167
I-6
aI8
asI167
(lp168
I-6
aI8
asI168
(lp169
I-6
aI8
asI169
(lp170
I-6
aI8
asI170
(lp171
I-6
aI8
asI171
(lp172
I-6
aI8
asI172
(lp173
I-6
aI8
asI173
(lp174
I-7
aI8
asI174
(lp175
I-7
aI9
asI175
(lp176
I-6
aI8
asI176
(lp177
I-7
aI8
asI177
(lp178
I-6
aI8
asI178
(lp179
I-7
aI8
asI179
(lp180
I-7
aI9
asI180
(lp181
I-6
aI8
asI181
(lp182
I-7
aI8
asI182
(lp183
I-6
aI8
asI183
(lp184
I-7
aI8
asI184
(lp185
I-7
aI9
asI185
(lp186
I-7
aI9
asI186
(lp187
I-7
aI9
asI187
(lp188
I-7
aI9
asI188
(lp189
I-7
aI9
asI189
(lp190
I-7
aI9
asI190
(lp191
I-7
aI9
asI191
(lp192
I-7
aI10
asI192
(lp193
I-7
aI10
asI193
(lp194
I-7
aI10
asI194
(lp195
I-7
aI11
asI195
(lp196
I-8
aI11
asI196
(lp197
I-7
aI11
asI197
(lp198
I-8
aI12
asI198
(lp199
I-8
aI12
asI199
(lp200
I-8
aI12
asI200
(lp201
I-8
aI12
asI201
(lp202
I-8
aI12
asI202
(lp203
I-8
aI12
asI203
(lp204
I-8
aI12
asI204
(lp205
I-7
aI11
asI205
(lp206
I-7
aI11
asI206
(lp207
I-7
aI11
asI207
(lp208
I-7
aI11
asI208
(lp209
I-7
aI11
asI209
(lp210
I-8
aI11
asI210
(lp211
I-7
aI11
asI211
(lp212
I-7
aI11
asI212
(lp213
I-7
aI11
asI213
(lp214
I-7
aI11
asI214
(lp215
I-7
aI11
asI215
(lp216
I-7
aI11
asI216
(lp217
I-7
aI10
asI217
(lp218
I-7
aI11
asI218
(lp219
I-7
aI11
asI219
(lp220
I-7
aI11
asI220
(lp221
I-7
aI11
asI221
(lp222
I-7
aI10
asI222
(lp223
I-7
aI11
asI223
(lp224
I-7
aI11
asI224
(lp225
I-7
aI10
asI225
(lp226
I-7
aI10
asI226
(lp227
I-7
aI10
asI227
(lp228
I-7
aI10
asI228
(lp229
I-7
aI10
asI229
(lp230
I-7
aI10
asI230
(lp231
I-7
aI10
asI231
(lp232
I-7
aI9
asI232
(lp233
I-7
aI9
asI233
(lp234
I-7
aI9
asI234
(lp235
I-7
aI9
asI235
(lp236
I-7
aI9
asI236
(lp237
I-7
aI9
asI237
(lp238
I-6
aI9
asI238
(lp239
I-6
aI9
asI239
(lp240
I-6
aI9
asI240
(lp241
I-6
aI9
asI241
(lp242
I-6
aI9
asI242
(lp243
I-6
aI9
asI243
(lp244
I-6
aI9
asI244
(lp245
I-6
aI9
asI245
(lp246
I-6
aI9
asI246
(lp247
I-7
aI9
asI247
(lp248
I-7
aI9
asI248
(lp249
I-7
aI9
asI249
(lp250
I-7
aI9
asI250
(lp251
I-7
aI10
asI251
(lp252
I-7
aI10
asI252
(lp253
I-7
aI11
asI253
(lp254
I-7
aI11
asI254
(lp255
I-7
aI11
asI255
(lp256
I-7
aI11
asI256
(lp257
I-6
aI9
asI257
(lp258
I-5
aI8
asI258
(lp259
I-5
aI7
asI259
(lp260
I-5
aI7
asI260
(lp261
I-5
aI7
asI261
(lp262
I-5
aI7
asI262
(lp263
I-5
aI7
asI263
(lp264
I-4
aI6
asI264
(lp265
I-4
aI4
asI265
(lp266
I-3
aI2
asI266
(lp267
I-3
aI2
asI267
(lp268
I-3
aI2
asI268
(lp269
I-4
aI3
asI269
(lp270
I-4
aI3
asI270
(lp271
I-4
aI3
asI271
(lp272
I-4
aI3
asI272
(lp273
I-4
aI4
asI273
(lp274
I-4
aI4
asI274
(lp275
I-4
aI4
asI275
(lp276
I-4
aI4
asI276
(lp277
I-4
aI4
asI277
(lp278
I-4
aI5
asI278
(lp279
I-5
aI6
asI279
(lp280
I-5
aI8
asI280
(lp281
I-5
aI8
asI281
(lp282
I-5
aI8
asI282
(lp283
I-5
aI8
asI283
(lp284
I-4
aI6
asI284
(lp285
I-4
aI6
asI285
(lp286
I-4
aI6
asI286
(lp287
I-5
aI7
asI287
(lp288
I-5
aI8
asI288
(lp289
I-5
aI8
asI289
(lp290
I-5
aI8
asI290
(lp291
I-5
aI9
asI291
(lp292
I-6
aI10
asI292
(lp293
I-5
aI9
asI293
(lp294
I-5
aI8
asI294
(lp295
I-4
aI6
asI295
(lp296
I-4
aI6
asI296
(lp297
I-4
aI6
asI297
(lp298
I-4
aI5
asI298
(lp299
I-4
aI5
asI299
(lp300
I-4
aI5
asI300
(lp301
I-3
aI4
asI301
(lp302
I-3
aI4
asI302
(lp303
I-3
aI4
asI303
(lp304
I-4
aI4
asI304
(lp305
I-4
aI4
asI305
(lp306
I-4
aI4
asI306
(lp307
I-4
aI4
asI307
(lp308
I-4
aI4
asI308
(lp309
I-4
aI4
asI309
(lp310
I-4
aI4
asI310
(lp311
I-4
aI5
asI311
(lp312
I-4
aI5
asI312
(lp313
I-4
aI5
asI313
(lp314
I-5
aI6
asI314
(lp315
I-5
aI6
asI315
(lp316
I-5
aI7
asI316
(lp317
I-5
aI7
asI317
(lp318
I-5
aI7
asI318
(lp319
I-5
aI7
asI319
(lp320
I-5
aI7
asI320
(lp321
I-5
aI7
asI321
(lp322
I-5
aI7
asI322
(lp323
I-5
aI7
asI323
(lp324
I-5
aI7
asI324
(lp325
I-5
aI7
asI325
(lp326
I-5
aI8
asI326
(lp327
I-5
aI8
asI327
(lp328
I-5
aI8
asI328
(lp329
I-5
aI8
asI329
(lp330
I-5
aI8
asI330
(lp331
I-5
aI8
asI331
(lp332
I-5
aI8
asI332
(lp333
I-5
aI8
asI333
(lp334
I-5
aI7
asI334
(lp335
I-5
aI7
asI335
(lp336
I-5
aI7
asI336
(lp337
I-5
aI7
asI337
(lp338
I-5
aI7
asI338
(lp339
I-6
aI9
asI339
(lp340
I-5
aI8
asI340
(lp341
I-5
aI7
asI341
(lp342
I-5
aI6
asI342
(lp343
I-5
aI6
asI343
(lp344
I-5
aI6
asI344
(lp345
I-5
aI6
asI345
(lp346
I-5
aI6
asI346
(lp347
I-5
aI6
asI347
(lp348
I-5
aI6
asI348
(lp349
I-5
aI6
asI349
(lp350
I-5
aI6
asI350
(lp351
I-5
aI6
asI351
(lp352
I-5
aI6
asI352
(lp353
I-5
aI6
asI353
(lp354
I-5
aI6
asI354
(lp355
I-4
aI5
asI355
(lp356
I-4
aI5
asI356
(lp357
I-4
aI5
asI357
(lp358
I-5
aI6
asI358
(lp359
I-5
aI6
asI359
(lp360
I-5
aI6
asI360
(lp361
I-4
aI6
asI361
(lp362
I-5
aI6
asI362
(lp363
I-5
aI6
asI363
(lp364
I-5
aI6
asI364
(lp365
I-5
aI6
asI365
(lp366
I-5
aI6
asI366
(lp367
I-4
aI6
asI367
(lp368
I-4
aI6
asI368
(lp369
I-4
aI6
asI369
(lp370
I-5
aI7
asI370
(lp371
I-5
aI7
asI371
(lp372
I-5
aI7
asI372
(lp373
I-5
aI7
asI373
(lp374
I-5
aI7
asI374
(lp375
I-5
aI7
asI375
(lp376
I-5
aI7
asI376
(lp377
I-5
aI8
asI377
(lp378
I-5
aI9
asI378
(lp379
I-5
aI9
asI379
(lp380
I-5
aI8
asI380
(lp381
I-4
aI6
asI381
(lp382
I-4
aI6
asI382
(lp383
I-3
aI5
asI383
(lp384
I-3
aI5
asI384
(lp385
I-3
aI4
asI385
(lp386
I-3
aI4
asI386
(lp387
I-2
aI2
asI387
(lp388
I-2
aI-1
asI388
(lp389
I-2
aI-2
asI389
(lp390
I-2
aI-2
asI390
(lp391
I-1
aI-3
asI391
(lp392
I-1
aI-3
asI392
(lp393
I-1
aI-3
asI393
(lp394
I-2
aI-2
asI394
(lp395
I-2
aI0
asI395
(lp396
I-3
aI0
asI396
(lp397
I-3
aI0
asI397
(lp398
I-2
aI0
asI398
(lp399
I-3
aI0
asI399
(lp400
I-2
aI1
asI400
(lp401
I-3
aI3
asI401
(lp402
I-3
aI4
asI402
(lp403
I-4
aI5
asI403
(lp404
I-4
aI7
asI404
(lp405
I-3
aI8
asI405
(lp406
I-3
aI10
asI406
(lp407
I-3
aI10
asI407
(lp408
I-3
aI10
asI408
(lp409
I-2
aI10
asI409
(lp410
I-2
aI9
asI410
(lp411
I-2
aI9
asI411
(lp412
I-2
aI9
asI412
(lp413
I0
aI6
asI413
(lp414
I1
aI4
asI414
(lp415
I1
aI3
asI415
(lp416
I1
aI4
asI416
(lp417
I1
aI4
asI417
(lp418
I0
aI4
asI418
(lp419
I0
aI4
asI419
(lp420
I0
aI5
asI420
(lp421
I0
aI5
asI421
(lp422
I0
aI5
asI422
(lp423
I0
aI5
asI423
(lp424
I0
aI5
asI424
(lp425
I0
aI5
asI425
(lp426
I0
aI4
asI426
(lp427
I0
aI4
asI427
(lp428
I0
aI4
asI428
(lp429
I0
aI4
asI429
(lp430
I0
aI4
asI430
(lp431
I0
aI4
asI431
(lp432
I0
aI4
asI432
(lp433
I0
aI4
asI433
(lp434
I0
aI4
asI434
(lp435
I0
aI4
asI435
(lp436
I0
aI4
asI436
(lp437
I0
aI4
asI437
(lp438
I0
aI4
asI438
(lp439
I0
aI4
asI439
(lp440
I0
aI4
asI440
(lp441
I0
aI4
asI441
(lp442
I-1
aI4
asI442
(lp443
I-1
aI4
asI443
(lp444
I-1
aI4
asI444
(lp445
I-1
aI4
asI445
(lp446
I-1
aI4
asI446
(lp447
I0
aI3
asI447
(lp448
I0
aI3
asI448
(lp449
I0
aI3
asI449
(lp450
I0
aI3
asI450
(lp451
I0
aI3
asI451
(lp452
I0
aI3
asI452
(lp453
I0
aI3
asI453
(lp454
I0
aI3
asI454
(lp455
I0
aI3
asI455
(lp456
I0
aI3
asI456
(lp457
I0
aI3
asI457
(lp458
I0
aI3
asI458
(lp459
I0
aI3
asI459
(lp460
I-1
aI3
asI460
(lp461
I-1
aI3
asI461
(lp462
I-1
aI3
asI462
(lp463
I-1
aI3
asI463
(lp464
I-1
aI3
asI464
(lp465
I-1
aI3
asI465
(lp466
I-1
aI3
asI466
(lp467
I-1
aI3
asI467
(lp468
I-1
aI3
asI468
(lp469
I-1
aI3
asI469
(lp470
I-1
aI3
asI470
(lp471
I-1
aI3
asI471
(lp472
I-1
aI3
asI472
(lp473
I-1
aI3
asI473
(lp474
I-1
aI3
asI474
(lp475
I-1
aI3
asI475
(lp476
I-1
aI3
asI476
(lp477
I-1
aI3
asI477
(lp478
I-1
aI3
asI478
(lp479
I-1
aI3
asI479
(lp480
I-1
aI3
asI480
(lp481
I-1
aI3
asI481
(lp482
I-1
aI2
asI482
(lp483
I-1
aI2
asI483
(lp484
I-1
aI2
asI484
(lp485
I-1
aI2
asI485
(lp486
I-1
aI2
asI486
(lp487
I-1
aI2
asI487
(lp488
I-1
aI2
asI488
(lp489
I-1
aI2
asI489
(lp490
I-1
aI2
asI490
(lp491
I-1
aI2
asI491
(lp492
I-1
aI2
asI492
(lp493
I-1
aI2
asI493
(lp494
I-1
aI3
asI494
(lp495
I-1
aI3
asI495
(lp496
I-1
aI3
asI496
(lp497
I-1
aI3
asI497
(lp498
I-1
aI3
asI498
(lp499
I-1
aI3
asI499
(lp500
I-1
aI2
asI500
(lp501
I-1
aI2
asI501
(lp502
I-1
aI2
asI502
(lp503
I0
aI1
asI503
(lp504
I0
aI1
asI504
(lp505
I-1
aI0
asI505
(lp506
I0
aI-1
asI506
(lp507
I0
aI-3
asI507
(lp508
I0
aI-4
asI508
(lp509
I0
aI-5
asI509
(lp510
I0
aI-6
asI510
(lp511
I0
aI-6
asI511
(lp512
I0
aI-6
asI512
(lp513
I0
aI-5
asI513
(lp514
I0
aI-5
asI514
(lp515
I0
aI-4
asI515
(lp516
I0
aI-4
asI516
(lp517
I0
aI-4
asI517
(lp518
I-1
aI-2
asI518
(lp519
I-1
aI-2
asI519
(lp520
I-1
aI-1
asI520
(lp521
I-1
aI-1
asI521
(lp522
I-1
aI-1
asI522
(lp523
I-1
aI-1
asI523
(lp524
I-2
aI0
asI524
(lp525
I-1
aI2
asI525
(lp526
I0
aI1
asI526
(lp527
I0
aI0
asI527
(lp528
I0
aI0
asI528
(lp529
I0
aI0
asI529
(lp530
I0
aI0
asI530
(lp531
I0
aI0
asI531
(lp532
I0
aI0
asI532
(lp533
I0
aI0
asI533
(lp534
I0
aI0
asI534
(lp535
I0
aI0
asI535
(lp536
I0
aI0
asI536
(lp537
I0
aI0
asI537
(lp538
I0
aI0
asI538
(lp539
I0
aI0
asI539
(lp540
I0
aI0
asI540
(lp541
I0
aI0
asI541
(lp542
I0
aI0
asI542
(lp543
I0
aI0
asI543
(lp544
I0
aI1
asI544
(lp545
I1
aI1
asI545
(lp546
I0
aI0
asI546
(lp547
I0
aI0
asI547
(lp548
I0
aI0
asI548
(lp549
I0
aI0
asI549
(lp550
I0
aI0
asI550
(lp551
I0
aI0
asI551
(lp552
I0
aI0
asI552
(lp553
I0
aI0
asI553
(lp554
I0
aI0
asI554
(lp555
I0
aI0
asI555
(lp556
I0
aI0
asI556
(lp557
I0
aI0
asI557
(lp558
I0
aI0
asI558
(lp559
I0
aI0
asI559
(lp560
I0
aI0
asI560
(lp561
I0
aI0
asI561
(lp562
I0
aI0
asI562
(lp563
I0
aI0
asI563
(lp564
I0
aI0
asI564
(lp565
I0
aI0
asI565
(lp566
I0
aI0
asI566
(lp567
I0
aI0
asI567
(lp568
I0
aI0
asI568
(lp569
I0
aI0
asI569
(lp570
I1
aI1
asI570
(lp571
I1
aI1
asI571
(lp572
I1
aI1
asI572
(lp573
I0
aI0
asI573
(lp574
I0
aI0
asI574
(lp575
I0
aI0
asI575
(lp576
I0
aI0
asI576
(lp577
I0
aI0
asI577
(lp578
I0
aI0
asI578
(lp579
I0
aI0
asI579
(lp580
I0
aI0
asI580
(lp581
I0
aI0
asI581
(lp582
I0
aI0
asI582
(lp583
I0
aI0
asI583
(lp584
I0
aI0
asI584
(lp585
I0
aI0
asI585
(lp586
I0
aI0
asI586
(lp587
I0
aI0
asI587
(lp588
I0
aI0
asI588
(lp589
I0
aI0
asI589
(lp590
I0
aI0
asI590
(lp591
I0
aI0
asI591
(lp592
I0
aI0
asI592
(lp593
I0
aI0
asI593
(lp594
I0
aI0
asI594
(lp595
I0
aI0
asI595
(lp596
I0
aI0
asI596
(lp597
I0
aI0
asI597
(lp598
I0
aI0
asI598
(lp599
I0
aI0
asI599
(lp600
I0
aI0
asI600
(lp601
I0
aI0
asI601
(lp602
I0
aI0
asI602
(lp603
I0
aI0
asI603
(lp604
I0
aI0
asI604
(lp605
I0
aI0
asI605
(lp606
I0
aI0
asI606
(lp607
I0
aI0
asI607
(lp608
I0
aI0
asI608
(lp609
I0
aI0
asI609
(lp610
I0
aI0
asI610
(lp611
I0
aI0
asI611
(lp612
I0
aI0
asI612
(lp613
I0
aI0
asI613
(lp614
I0
aI0
asI614
(lp615
I0
aI0
asI615
(lp616
I0
aI0
asI616
(lp617
I0
aI0
asI617
(lp618
I0
aI0
asI618
(lp619
I0
aI0
asI619
(lp620
I0
aI0
asI620
(lp621
I0
aI0
asI621
(lp622
I0
aI0
asI622
(lp623
I0
aI0
asI623
(lp624
I0
aI0
asI624
(lp625
I0
aI0
asI625
(lp626
I0
aI0
asI626
(lp627
I0
aI0
asI627
(lp628
I0
aI0
asI628
(lp629
I0
aI0
asI629
(lp630
I0
aI0
asI630
(lp631
I0
aI0
asI631
(lp632
I0
aI0
asI632
(lp633
I0
aI0
asI633
(lp634
I0
aI0
asI634
(lp635
I0
aI0
asI635
(lp636
I0
aI0
asI636
(lp637
I0
aI0
asI637
(lp638
I0
aI0
asI638
(lp639
I0
aI0
asI639
(lp640
I0
aI0
asI640
(lp641
I0
aI0
asI641
(lp642
I0
aI0
asI642
(lp643
I0
aI0
asI643
(lp644
I0
aI0
asI644
(lp645
I0
aI0
asI645
(lp646
I0
aI0
asI646
(lp647
I0
aI0
asI647
(lp648
I0
aI0
asI648
(lp649
I0
aI0
asI649
(lp650
I0
aI0
asI650
(lp651
I0
aI0
asI651
(lp652
I0
aI0
asI652
(lp653
I0
aI0
asI653
(lp654
I0
aI0
asI654
(lp655
I0
aI0
asI655
(lp656
I0
aI0
asI656
(lp657
I0
aI0
asI657
(lp658
I0
aI0
asI658
(lp659
I0
aI0
asI659
(lp660
I0
aI0
asI660
(lp661
I0
aI0
asI661
(lp662
I0
aI0
asI662
(lp663
I0
aI0
asI663
(lp664
I0
aI0
asI664
(lp665
I0
aI0
asI665
(lp666
I0
aI0
asI666
(lp667
I0
aI0
asI667
(lp668
I0
aI0
asI668
(lp669
I0
aI0
asI669
(lp670
I0
aI0
asI670
(lp671
I0
aI0
asI671
(lp672
I0
aI0
asI672
(lp673
I0
aI0
asI673
(lp674
I0
aI0
asI674
(lp675
I0
aI0
asI675
(lp676
I0
aI0
as.