(dp0
I0
(lp1
I-1
aI4
asI1
(lp2
I-1
aI4
asI2
(lp3
I-1
aI4
asI3
(lp4
I-1
aI4
asI4
(lp5
I-1
aI4
asI5
(lp6
I-1
aI4
asI6
(lp7
I-1
aI4
asI7
(lp8
I-1
aI4
asI8
(lp9
I-1
aI4
asI9
(lp10
I-1
aI4
asI10
(lp11
I-1
aI4
asI11
(lp12
I-1
aI4
asI12
(lp13
I-1
aI4
asI13
(lp14
I-1
aI4
asI14
(lp15
I-1
aI4
asI15
(lp16
I-1
aI4
asI16
(lp17
I-1
aI4
asI17
(lp18
I-1
aI4
asI18
(lp19
I-1
aI4
asI19
(lp20
I-1
aI5
asI20
(lp21
I-1
aI5
asI21
(lp22
I-1
aI5
asI22
(lp23
I-1
aI5
asI23
(lp24
I-1
aI5
asI24
(lp25
I-1
aI4
asI25
(lp26
I-1
aI5
asI26
(lp27
I-1
aI5
asI27
(lp28
I-1
aI5
asI28
(lp29
I-1
aI5
asI29
(lp30
I-1
aI5
asI30
(lp31
I-1
aI5
asI31
(lp32
I-1
aI5
asI32
(lp33
I-1
aI5
asI33
(lp34
I-1
aI4
asI34
(lp35
I-1
aI4
asI35
(lp36
I-1
aI4
asI36
(lp37
I-1
aI4
asI37
(lp38
I-1
aI4
asI38
(lp39
I-1
aI4
asI39
(lp40
I-1
aI4
asI40
(lp41
I-1
aI4
asI41
(lp42
I-1
aI4
asI42
(lp43
I-1
aI4
asI43
(lp44
I-1
aI4
asI44
(lp45
I-1
aI4
asI45
(lp46
I-1
aI4
asI46
(lp47
I-1
aI4
asI47
(lp48
I-1
aI4
asI48
(lp49
I-1
aI4
asI49
(lp50
I-1
aI4
asI50
(lp51
I-1
aI3
asI51
(lp52
I-1
aI3
asI52
(lp53
I-1
aI3
asI53
(lp54
I-1
aI3
asI54
(lp55
I-1
aI3
asI55
(lp56
I-1
aI3
asI56
(lp57
I-1
aI3
asI57
(lp58
I-1
aI3
asI58
(lp59
I-1
aI3
asI59
(lp60
I-1
aI3
asI60
(lp61
I-1
aI3
asI61
(lp62
I-1
aI3
asI62
(lp63
I-1
aI3
asI63
(lp64
I-1
aI3
asI64
(lp65
I-1
aI3
asI65
(lp66
I-1
aI3
asI66
(lp67
I-1
aI3
asI67
(lp68
I-1
aI3
asI68
(lp69
I-1
aI3
asI69
(lp70
I-1
aI3
asI70
(lp71
I-1
aI3
asI71
(lp72
I-1
aI3
asI72
(lp73
I-1
aI3
asI73
(lp74
I-1
aI3
asI74
(lp75
I-1
aI3
asI75
(lp76
I-1
aI4
asI76
(lp77
I-1
aI4
asI77
(lp78
I-1
aI4
asI78
(lp79
I-1
aI4
asI79
(lp80
I-1
aI4
asI80
(lp81
I-1
aI3
asI81
(lp82
I-1
aI3
asI82
(lp83
I-1
aI4
asI83
(lp84
I-1
aI4
asI84
(lp85
I-1
aI4
asI85
(lp86
I-1
aI4
asI86
(lp87
I-1
aI4
asI87
(lp88
I-1
aI4
asI88
(lp89
I-1
aI4
asI89
(lp90
I-1
aI4
asI90
(lp91
I-1
aI4
asI91
(lp92
I-1
aI4
asI92
(lp93
I-1
aI4
asI93
(lp94
I-1
aI4
asI94
(lp95
I-1
aI4
asI95
(lp96
I-1
aI4
asI96
(lp97
I-1
aI4
asI97
(lp98
I-1
aI4
asI98
(lp99
I-1
aI4
asI99
(lp100
I-1
aI4
asI100
(lp101
I-1
aI4
asI101
(lp102
I-1
aI4
asI102
(lp103
I-1
aI4
asI103
(lp104
I-1
aI3
asI104
(lp105
I-1
aI3
asI105
(lp106
I-1
aI3
asI106
(lp107
I-1
aI3
asI107
(lp108
I-1
aI3
asI108
(lp109
I-1
aI4
asI109
(lp110
I-1
aI4
asI110
(lp111
I-1
aI4
asI111
(lp112
I-1
aI4
asI112
(lp113
I-1
aI4
asI113
(lp114
I-1
aI4
asI114
(lp115
I-1
aI3
asI115
(lp116
I-1
aI3
asI116
(lp117
I-1
aI4
asI117
(lp118
I-1
aI3
asI118
(lp119
I-1
aI4
asI119
(lp120
I-1
aI3
asI120
(lp121
I-1
aI3
asI121
(lp122
I-1
aI3
asI122
(lp123
I-1
aI3
asI123
(lp124
I-1
aI3
asI124
(lp125
I-1
aI3
asI125
(lp126
I-1
aI3
asI126
(lp127
I-1
aI3
asI127
(lp128
I-1
aI3
asI128
(lp129
I-1
aI3
asI129
(lp130
I-1
aI3
asI130
(lp131
I-1
aI3
asI131
(lp132
I-1
aI3
asI132
(lp133
I-1
aI3
asI133
(lp134
I-1
aI4
asI134
(lp135
I-1
aI4
asI135
(lp136
I-1
aI4
asI136
(lp137
I-1
aI4
asI137
(lp138
I-1
aI4
asI138
(lp139
I-1
aI4
asI139
(lp140
I-1
aI3
asI140
(lp141
I-1
aI3
asI141
(lp142
I-1
aI4
asI142
(lp143
I-1
aI4
asI143
(lp144
I-1
aI4
asI144
(lp145
I-1
aI4
asI145
(lp146
I-1
aI4
asI146
(lp147
I-1
aI4
asI147
(lp148
I-1
aI3
asI148
(lp149
I-1
aI3
asI149
(lp150
I-1
aI3
asI150
(lp151
I-1
aI3
asI151
(lp152
I-1
aI3
asI152
(lp153
I-1
aI3
asI153
(lp154
I-1
aI3
asI154
(lp155
I-1
aI3
asI155
(lp156
I-1
aI3
asI156
(lp157
I-1
aI3
asI157
(lp158
I-1
aI3
asI158
(lp159
I-1
aI3
asI159
(lp160
I-1
aI3
asI160
(lp161
I-1
aI3
asI161
(lp162
I-1
aI3
asI162
(lp163
I-1
aI3
asI163
(lp164
I-1
aI3
asI164
(lp165
I-1
aI3
asI165
(lp166
I-1
aI3
asI166
(lp167
I-1
aI3
asI167
(lp168
I-1
aI3
asI168
(lp169
I-1
aI3
asI169
(lp170
I-1
aI3
asI170
(lp171
I-1
aI3
asI171
(lp172
I-1
aI3
asI172
(lp173
I-1
aI3
asI173
(lp174
I-1
aI3
asI174
(lp175
I-1
aI3
asI175
(lp176
I-1
aI3
asI176
(lp177
I-1
aI3
asI177
(lp178
I-1
aI3
asI178
(lp179
I-1
aI3
asI179
(lp180
I-1
aI3
asI180
(lp181
I-1
aI3
asI181
(lp182
I-1
aI3
asI182
(lp183
I-1
aI3
asI183
(lp184
I-1
aI3
asI184
(lp185
I-1
aI3
asI185
(lp186
I-1
aI3
asI186
(lp187
I-1
aI3
asI187
(lp188
I-1
aI3
asI188
(lp189
I-1
aI3
asI189
(lp190
I-1
aI3
asI190
(lp191
I-2
aI3
asI191
(lp192
I-2
aI4
asI192
(lp193
I-2
aI4
asI193
(lp194
I-2
aI4
asI194
(lp195
I-1
aI4
asI195
(lp196
I-1
aI4
asI196
(lp197
I-1
aI4
asI197
(lp198
I-1
aI4
asI198
(lp199
I-1
aI4
asI199
(lp200
I-1
aI4
asI200
(lp201
I-1
aI4
asI201
(lp202
I-1
aI4
asI202
(lp203
I-1
aI4
asI203
(lp204
I-1
aI4
asI204
(lp205
I-1
aI4
asI205
(lp206
I-1
aI4
asI206
(lp207
I-1
aI4
asI207
(lp208
I-1
aI4
asI208
(lp209
I-1
aI4
asI209
(lp210
I-1
aI4
asI210
(lp211
I-1
aI4
asI211
(lp212
I-1
aI4
asI212
(lp213
I-1
aI4
asI213
(lp214
I-1
aI4
asI214
(lp215
I-1
aI4
asI215
(lp216
I-1
aI4
asI216
(lp217
I-1
aI4
asI217
(lp218
I-1
aI4
asI218
(lp219
I-1
aI4
asI219
(lp220
I-1
aI4
asI220
(lp221
I-1
aI4
asI221
(lp222
I-1
aI4
asI222
(lp223
I-1
aI4
asI223
(lp224
I-1
aI4
asI224
(lp225
I-2
aI4
asI225
(lp226
I-1
aI3
asI226
(lp227
I-1
aI3
asI227
(lp228
I-2
aI4
asI228
(lp229
I-2
aI4
asI229
(lp230
I-2
aI4
asI230
(lp231
I-2
aI4
asI231
(lp232
I-2
aI3
asI232
(lp233
I-1
aI3
asI233
(lp234
I-1
aI3
asI234
(lp235
I-1
aI3
asI235
(lp236
I-1
aI3
asI236
(lp237
I-1
aI3
asI237
(lp238
I-1
aI3
asI238
(lp239
I-1
aI3
asI239
(lp240
I-1
aI3
asI240
(lp241
I-1
aI3
asI241
(lp242
I-1
aI3
asI242
(lp243
I-1
aI3
asI243
(lp244
I-1
aI3
asI244
(lp245
I-1
aI3
asI245
(lp246
I-1
aI3
asI246
(lp247
I-1
aI3
asI247
(lp248
I-1
aI3
asI248
(lp249
I-1
aI3
asI249
(lp250
I-1
aI3
asI250
(lp251
I-1
aI3
asI251
(lp252
I-1
aI3
asI252
(lp253
I-1
aI4
asI253
(lp254
I-1
aI4
asI254
(lp255
I-1
aI4
asI255
(lp256
I-1
aI4
asI256
(lp257
I-1
aI3
asI257
(lp258
I-1
aI3
asI258
(lp259
I-1
aI3
asI259
(lp260
I-1
aI3
asI260
(lp261
I-1
aI3
asI261
(lp262
I-1
aI3
asI262
(lp263
I-1
aI3
asI263
(lp264
I-1
aI2
asI264
(lp265
I-1
aI2
asI265
(lp266
I0
aI1
asI266
(lp267
I0
aI1
asI267
(lp268
I0
aI1
asI268
(lp269
I0
aI1
asI269
(lp270
I0
aI1
asI270
(lp271
I0
aI1
asI271
(lp272
I0
aI1
asI272
(lp273
I-1
aI2
asI273
(lp274
I-1
aI2
asI274
(lp275
I-1
aI2
asI275
(lp276
I-1
aI2
asI276
(lp277
I-1
aI2
asI277
(lp278
I-1
aI2
asI278
(lp279
I-1
aI2
asI279
(lp280
I0
aI3
asI280
(lp281
I-1
aI3
asI281
(lp282
I-1
aI3
asI282
(lp283
I0
aI3
asI283
(lp284
I-1
aI2
asI284
(lp285
I-1
aI2
asI285
(lp286
I-1
aI2
asI286
(lp287
I-1
aI3
asI287
(lp288
I-1
aI3
asI288
(lp289
I-1
aI3
asI289
(lp290
I-1
aI3
asI290
(lp291
I-1
aI3
asI291
(lp292
I-1
aI3
asI292
(lp293
I-1
aI3
asI293
(lp294
I-1
aI3
asI294
(lp295
I-1
aI2
asI295
(lp296
I-1
aI2
asI296
(lp297
I-1
aI2
asI297
(lp298
I0
aI2
asI298
(lp299
I0
aI2
asI299
(lp300
I0
aI2
asI300
(lp301
I0
aI1
asI301
(lp302
I0
aI1
asI302
(lp303
I0
aI1
asI303
(lp304
I0
aI1
asI304
(lp305
I0
aI1
asI305
(lp306
I0
aI2
asI306
(lp307
I0
aI2
asI307
(lp308
I-1
aI2
asI308
(lp309
I0
aI2
asI309
(lp310
I0
aI2
asI310
(lp311
I0
aI2
asI311
(lp312
I-1
aI2
asI312
(lp313
I-1
aI2
asI313
(lp314
I-1
aI2
asI314
(lp315
I-1
aI2
asI315
(lp316
I-1
aI2
asI316
(lp317
I-1
aI2
asI317
(lp318
I-1
aI2
asI318
(lp319
I-1
aI2
asI319
(lp320
I-1
aI2
asI320
(lp321
I-1
aI2
asI321
(lp322
I-1
aI3
asI322
(lp323
I-1
aI3
asI323
(lp324
I-1
aI3
asI324
(lp325
I-1
aI3
asI325
(lp326
I-1
aI3
asI326
(lp327
I-1
aI3
asI327
(lp328
I-1
aI3
asI328
(lp329
I-1
aI3
asI329
(lp330
I-1
aI3
asI330
(lp331
I-1
aI3
asI331
(lp332
I-1
aI3
asI332
(lp333
I-1
aI3
asI333
(lp334
I-1
aI3
asI334
(lp335
I-1
aI3
asI335
(lp336
I0
aI3
asI336
(lp337
I0
aI3
asI337
(lp338
I-1
aI3
asI338
(lp339
I-1
aI3
asI339
(lp340
I-1
aI3
asI340
(lp341
I0
aI3
asI341
(lp342
I-1
aI2
asI342
(lp343
I-1
aI2
asI343
(lp344
I-1
aI2
asI344
(lp345
I-1
aI2
asI345
(lp346
I-1
aI2
asI346
(lp347
I-1
aI2
asI347
(lp348
I-1
aI2
asI348
(lp349
I-1
aI2
asI349
(lp350
I-1
aI2
asI350
(lp351
I-1
aI2
asI351
(lp352
I-1
aI2
asI352
(lp353
I-1
aI2
asI353
(lp354
I-1
aI2
asI354
(lp355
I-1
aI2
asI355
(lp356
I-1
aI2
asI356
(lp357
I-1
aI2
asI357
(lp358
I-1
aI2
asI358
(lp359
I-1
aI2
asI359
(lp360
I-1
aI2
asI360
(lp361
I-1
aI2
asI361
(lp362
I-1
aI2
asI362
(lp363
I-1
aI2
asI363
(lp364
I-1
aI2
asI364
(lp365
I-1
aI2
asI365
(lp366
I-1
aI2
asI366
(lp367
I-1
aI2
asI367
(lp368
I-1
aI2
asI368
(lp369
I-1
aI2
asI369
(lp370
I-1
aI3
asI370
(lp371
I-1
aI3
asI371
(lp372
I-1
aI3
asI372
(lp373
I-1
aI2
asI373
(lp374
I-1
aI3
asI374
(lp375
I-1
aI3
asI375
(lp376
I-1
aI3
asI376
(lp377
I-1
aI3
asI377
(lp378
I-1
aI3
asI378
(lp379
I-1
aI3
asI379
(lp380
I-1
aI3
asI380
(lp381
I-1
aI2
asI381
(lp382
I0
aI2
asI382
(lp383
I0
aI2
asI383
(lp384
I0
aI2
asI384
(lp385
I0
aI2
asI385
(lp386
I0
aI2
asI386
(lp387
I0
aI1
asI387
(lp388
I-1
aI0
asI388
(lp389
I-1
aI-1
asI389
(lp390
I-1
aI-1
asI390
(lp391
I0
aI-1
asI391
(lp392
I0
aI-1
asI392
(lp393
I0
aI-1
asI393
(lp394
I-1
aI-1
asI394
(lp395
I-1
aI0
asI395
(lp396
I-1
aI0
asI396
(lp397
I-1
aI0
asI397
(lp398
I-1
aI0
asI398
(lp399
I-1
aI0
asI399
(lp400
I-1
aI0
asI400
(lp401
I0
aI1
asI401
(lp402
I0
aI1
asI402
(lp403
I0
aI2
asI403
(lp404
I-1
aI2
asI404
(lp405
I0
aI3
asI405
(lp406
I0
aI3
asI406
(lp407
I0
aI3
asI407
(lp408
I0
aI3
asI408
(lp409
I0
aI3
asI409
(lp410
I0
aI3
asI410
(lp411
I0
aI3
asI411
(lp412
I0
aI3
asI412
(lp413
I1
aI2
asI413
(lp414
I1
aI1
asI414
(lp415
I1
aI1
asI415
(lp416
I1
aI1
asI416
(lp417
I1
aI1
asI417
(lp418
I1
aI1
asI418
(lp419
I1
aI1
asI419
(lp420
I1
aI2
asI420
(lp421
I1
aI2
asI421
(lp422
I1
aI2
asI422
(lp423
I1
aI2
asI423
(lp424
I1
aI2
asI424
(lp425
I1
aI2
asI425
(lp426
I1
aI1
asI426
(lp427
I1
aI1
asI427
(lp428
I1
aI1
asI428
(lp429
I1
aI1
asI429
(lp430
I1
aI1
asI430
(lp431
I1
aI1
asI431
(lp432
I1
aI1
asI432
(lp433
I1
aI1
asI433
(lp434
I1
aI1
asI434
(lp435
I1
aI2
asI435
(lp436
I1
aI2
asI436
(lp437
I1
aI2
asI437
(lp438
I1
aI1
asI438
(lp439
I1
aI2
asI439
(lp440
I1
aI2
asI440
(lp441
I1
aI1
asI441
(lp442
I1
aI2
asI442
(lp443
I1
aI2
asI443
(lp444
I0
aI2
asI444
(lp445
I1
aI2
asI445
(lp446
I1
aI2
asI446
(lp447
I1
aI1
asI447
(lp448
I1
aI1
asI448
(lp449
I1
aI1
asI449
(lp450
I1
aI1
asI450
(lp451
I1
aI1
asI451
(lp452
I1
aI1
asI452
(lp453
I1
aI1
asI453
(lp454
I1
aI1
asI454
(lp455
I1
aI1
asI455
(lp456
I1
aI1
asI456
(lp457
I1
aI1
asI457
(lp458
I1
aI1
asI458
(lp459
I1
aI1
asI459
(lp460
I1
aI1
asI460
(lp461
I0
aI1
asI461
(lp462
I0
aI1
asI462
(lp463
I0
aI1
asI463
(lp464
I0
aI1
asI464
(lp465
I0
aI1
asI465
(lp466
I0
aI1
asI466
(lp467
I0
aI1
asI467
(lp468
I0
aI1
asI468
(lp469
I0
aI1
asI469
(lp470
I0
aI1
asI470
(lp471
I0
aI1
asI471
(lp472
I0
aI1
asI472
(lp473
I0
aI1
asI473
(lp474
I0
aI1
asI474
(lp475
I0
aI1
asI475
(lp476
I0
aI1
asI476
(lp477
I0
aI1
asI477
(lp478
I0
aI1
asI478
(lp479
I0
aI1
asI479
(lp480
I0
aI1
asI480
(lp481
I0
aI1
asI481
(lp482
I0
aI1
asI482
(lp483
I0
aI1
asI483
(lp484
I0
aI1
asI484
(lp485
I0
aI1
asI485
(lp486
I0
aI1
asI486
(lp487
I0
aI1
asI487
(lp488
I0
aI1
asI488
(lp489
I0
aI1
asI489
(lp490
I0
aI1
asI490
(lp491
I0
aI1
asI491
(lp492
I0
aI1
asI492
(lp493
I0
aI1
asI493
(lp494
I0
aI1
asI494
(lp495
I0
aI1
asI495
(lp496
I0
aI1
asI496
(lp497
I0
aI1
asI497
(lp498
I0
aI1
asI498
(lp499
I0
aI1
asI499
(lp500
I0
aI1
asI500
(lp501
I0
aI1
asI501
(lp502
I0
aI1
asI502
(lp503
I1
aI1
asI503
(lp504
I0
aI0
asI504
(lp505
I0
aI0
asI505
(lp506
I0
aI0
asI506
(lp507
I0
aI-1
asI507
(lp508
I0
aI-1
asI508
(lp509
I0
aI-2
asI509
(lp510
I0
aI-2
asI510
(lp511
I0
aI-2
asI511
(lp512
I0
aI-2
asI512
(lp513
I0
aI-2
asI513
(lp514
I0
aI-2
asI514
(lp515
I0
aI-1
asI515
(lp516
I0
aI-1
asI516
(lp517
I0
aI-1
asI517
(lp518
I0
aI-1
asI518
(lp519
I0
aI-1
asI519
(lp520
I0
aI-1
asI520
(lp521
I0
aI-1
asI521
(lp522
I0
aI0
asI522
(lp523
I0
aI0
asI523
(lp524
I-1
aI0
asI524
(lp525
I1
aI1
asI525
(lp526
I1
aI1
asI526
(lp527
I0
aI0
asI527
(lp528
I0
aI0
asI528
(lp529
I0
aI0
asI529
(lp530
I0
aI0
asI530
(lp531
I0
aI0
asI531
(lp532
I0
aI0
asI532
(lp533
I0
aI0
asI533
(lp534
I0
aI0
asI534
(lp535
I0
aI0
asI535
(lp536
I0
aI0
asI536
(lp537
I0
aI0
asI537
(lp538
I0
aI0
asI538
(lp539
I0
aI0
asI539
(lp540
I0
aI0
asI540
(lp541
I0
aI0
asI541
(lp542
I0
aI0
asI542
(lp543
I0
aI0
asI543
(lp544
I0
aI0
asI544
(lp545
I0
aI0
asI545
(lp546
I0
aI0
asI546
(lp547
I0
aI0
asI547
(lp548
I0
aI0
asI548
(lp549
I0
aI0
asI549
(lp550
I0
aI0
asI550
(lp551
I0
aI0
asI551
(lp552
I0
aI0
asI552
(lp553
I0
aI0
asI553
(lp554
I0
aI0
asI554
(lp555
I0
aI0
asI555
(lp556
I0
aI0
asI556
(lp557
I0
aI0
asI557
(lp558
I0
aI0
asI558
(lp559
I0
aI0
asI559
(lp560
I0
aI0
asI560
(lp561
I0
aI0
asI561
(lp562
I0
aI0
asI562
(lp563
I0
aI0
asI563
(lp564
I0
aI0
asI564
(lp565
I0
aI0
asI565
(lp566
I0
aI0
asI566
(lp567
I0
aI0
asI567
(lp568
I0
aI0
asI568
(lp569
I0
aI0
asI569
(lp570
I0
aI0
asI570
(lp571
I0
aI0
asI571
(lp572
I0
aI0
asI572
(lp573
I0
aI0
asI573
(lp574
I0
aI0
asI574
(lp575
I0
aI0
asI575
(lp576
I0
aI0
asI576
(lp577
I0
aI0
asI577
(lp578
I0
aI0
asI578
(lp579
I0
aI0
asI579
(lp580
I0
aI0
asI580
(lp581
I0
aI0
asI581
(lp582
I0
aI0
asI582
(lp583
I0
aI0
asI583
(lp584
I0
aI0
asI584
(lp585
I0
aI0
asI585
(lp586
I0
aI0
asI586
(lp587
I0
aI0
asI587
(lp588
I0
aI0
asI588
(lp589
I0
aI0
asI589
(lp590
I0
aI0
asI590
(lp591
I0
aI0
asI591
(lp592
I0
aI0
asI592
(lp593
I0
aI0
asI593
(lp594
I0
aI0
asI594
(lp595
I0
aI0
asI595
(lp596
I0
aI0
asI596
(lp597
I0
aI0
asI597
(lp598
I0
aI0
asI598
(lp599
I0
aI0
asI599
(lp600
I0
aI0
asI600
(lp601
I0
aI0
asI601
(lp602
I0
aI0
asI602
(lp603
I0
aI0
asI603
(lp604
I0
aI0
asI604
(lp605
I0
aI0
asI605
(lp606
I0
aI0
asI606
(lp607
I0
aI0
asI607
(lp608
I0
aI0
asI608
(lp609
I0
aI0
asI609
(lp610
I0
aI0
asI610
(lp611
I0
aI0
asI611
(lp612
I0
aI0
asI612
(lp613
I0
aI0
asI613
(lp614
I0
aI0
asI614
(lp615
I0
aI0
asI615
(lp616
I0
aI0
asI616
(lp617
I0
aI0
asI617
(lp618
I0
aI0
asI618
(lp619
I0
aI0
asI619
(lp620
I0
aI0
asI620
(lp621
I0
aI0
asI621
(lp622
I0
aI0
asI622
(lp623
I0
aI0
asI623
(lp624
I0
aI0
asI624
(lp625
I0
aI0
asI625
(lp626
I0
aI0
asI626
(lp627
I0
aI0
asI627
(lp628
I0
aI0
asI628
(lp629
I0
aI0
asI629
(lp630
I0
aI0
asI630
(lp631
I0
aI0
asI631
(lp632
I0
aI0
asI632
(lp633
I0
aI0
asI633
(lp634
I0
aI0
asI634
(lp635
I0
aI0
asI635
(lp636
I0
aI0
asI636
(lp637
I0
aI0
asI637
(lp638
I0
aI0
asI638
(lp639
I0
aI0
asI639
(lp640
I0
aI0
asI640
(lp641
I0
aI0
asI641
(lp642
I0
aI0
asI642
(lp643
I0
aI0
asI643
(lp644
I0
aI0
asI644
(lp645
I0
aI0
asI645
(lp646
I0
aI0
asI646
(lp647
I0
aI0
asI647
(lp648
I0
aI0
asI648
(lp649
I0
aI0
asI649
(lp650
I0
aI0
asI650
(lp651
I0
aI0
asI651
(lp652
I0
aI0
asI652
(lp653
I0
aI0
asI653
(lp654
I0
aI0
asI654
(lp655
I0
aI0
asI655
(lp656
I0
aI0
asI656
(lp657
I0
aI0
asI657
(lp658
I0
aI0
asI658
(lp659
I0
aI0
asI659
(lp660
I0
aI0
asI660
(lp661
I0
aI0
asI661
(lp662
I0
aI0
asI662
(lp663
I0
aI0
asI663
(lp664
I0
aI0
asI664
(lp665
I0
aI0
asI665
(lp666
I0
aI0
asI666
(lp667
I0
aI0
asI667
(lp668
I0
aI0
asI668
(lp669
I0
aI0
asI669
(lp670
I0
aI0
asI670
(lp671
I0
aI0
asI671
(lp672
I0
aI0
asI672
(lp673
I0
aI0
asI673
(lp674
I0
aI0
asI674
(lp675
I0
aI0
asI675
(lp676
I0
aI0
as.