(dp0
I0
(lp1
I18
aI-6
asI1
(lp2
I18
aI-6
asI2
(lp3
I18
aI-6
asI3
(lp4
I18
aI-6
asI4
(lp5
I18
aI-6
asI5
(lp6
I26
aI1
asI6
(lp7
I26
aI1
asI7
(lp8
I26
aI1
asI8
(lp9
I26
aI1
asI9
(lp10
I26
aI1
asI10
(lp11
I26
aI1
asI11
(lp12
I26
aI1
asI12
(lp13
I26
aI1
asI13
(lp14
I26
aI1
asI14
(lp15
I26
aI1
asI15
(lp16
I26
aI1
asI16
(lp17
I26
aI1
asI17
(lp18
I26
aI1
asI18
(lp19
I26
aI2
asI19
(lp20
I26
aI2
asI20
(lp21
I26
aI2
asI21
(lp22
I26
aI2
asI22
(lp23
I26
aI2
asI23
(lp24
I26
aI2
asI24
(lp25
I26
aI2
asI25
(lp26
I26
aI2
asI26
(lp27
I26
aI2
asI27
(lp28
I26
aI2
asI28
(lp29
I26
aI2
asI29
(lp30
I26
aI2
asI30
(lp31
I26
aI2
asI31
(lp32
I26
aI2
asI32
(lp33
I26
aI2
asI33
(lp34
I26
aI1
asI34
(lp35
I26
aI1
asI35
(lp36
I26
aI1
asI36
(lp37
I26
aI1
asI37
(lp38
I16
aI-7
asI38
(lp39
I26
aI1
asI39
(lp40
I14
aI-10
asI40
(lp41
I16
aI-7
asI41
(lp42
I14
aI-10
asI42
(lp43
I14
aI-10
asI43
(lp44
I14
aI-10
asI44
(lp45
I16
aI-7
asI45
(lp46
I15
aI-10
asI46
(lp47
I16
aI-7
asI47
(lp48
I18
aI-7
asI48
(lp49
I16
aI-7
asI49
(lp50
I18
aI-7
asI50
(lp51
I18
aI-7
asI51
(lp52
I18
aI-7
asI52
(lp53
I18
aI-7
asI53
(lp54
I18
aI-7
asI54
(lp55
I18
aI-7
asI55
(lp56
I18
aI-7
asI56
(lp57
I18
aI-7
asI57
(lp58
I18
aI-7
asI58
(lp59
I17
aI-8
asI59
(lp60
I17
aI-8
asI60
(lp61
I17
aI-8
asI61
(lp62
I17
aI-8
asI62
(lp63
I17
aI-8
asI63
(lp64
I17
aI-8
asI64
(lp65
I17
aI-8
asI65
(lp66
I17
aI-8
asI66
(lp67
I17
aI-8
asI67
(lp68
I18
aI-8
asI68
(lp69
I18
aI-7
asI69
(lp70
I18
aI-7
asI70
(lp71
I18
aI-7
asI71
(lp72
I18
aI-8
asI72
(lp73
I18
aI-7
asI73
(lp74
I15
aI-10
asI74
(lp75
I15
aI-10
asI75
(lp76
I15
aI-10
asI76
(lp77
I14
aI-10
asI77
(lp78
I14
aI-10
asI78
(lp79
I14
aI-10
asI79
(lp80
I16
aI-7
asI80
(lp81
I16
aI-7
asI81
(lp82
I16
aI-7
asI82
(lp83
I18
aI-6
asI83
(lp84
I16
aI-7
asI84
(lp85
I18
aI-6
asI85
(lp86
I16
aI-7
asI86
(lp87
I16
aI-7
asI87
(lp88
I18
aI-6
asI88
(lp89
I17
aI-6
asI89
(lp90
I17
aI-6
asI90
(lp91
I17
aI-6
asI91
(lp92
I17
aI-6
asI92
(lp93
I17
aI-6
asI93
(lp94
I17
aI-6
asI94
(lp95
I18
aI-6
asI95
(lp96
I18
aI-6
asI96
(lp97
I18
aI-6
asI97
(lp98
I16
aI-7
asI98
(lp99
I16
aI-7
asI99
(lp100
I16
aI-7
asI100
(lp101
I16
aI-7
asI101
(lp102
I18
aI-6
asI102
(lp103
I18
aI-7
asI103
(lp104
I16
aI-7
asI104
(lp105
I18
aI-7
asI105
(lp106
I18
aI-7
asI106
(lp107
I16
aI-8
asI107
(lp108
I16
aI-7
asI108
(lp109
I16
aI-7
asI109
(lp110
I16
aI-7
asI110
(lp111
I16
aI-7
asI111
(lp112
I16
aI-7
asI112
(lp113
I17
aI-6
asI113
(lp114
I18
aI-6
asI114
(lp115
I16
aI-7
asI115
(lp116
I18
aI-7
asI116
(lp117
I16
aI-7
asI117
(lp118
I16
aI-7
asI118
(lp119
I16
aI-7
asI119
(lp120
I16
aI-8
asI120
(lp121
I16
aI-7
asI121
(lp122
I16
aI-8
asI122
(lp123
I16
aI-8
asI123
(lp124
I16
aI-8
asI124
(lp125
I16
aI-7
asI125
(lp126
I16
aI-8
asI126
(lp127
I16
aI-8
asI127
(lp128
I16
aI-8
asI128
(lp129
I16
aI-8
asI129
(lp130
I16
aI-7
asI130
(lp131
I16
aI-8
asI131
(lp132
I16
aI-7
asI132
(lp133
I16
aI-7
asI133
(lp134
I18
aI-6
asI134
(lp135
I18
aI-6
asI135
(lp136
I16
aI-7
asI136
(lp137
I16
aI-7
asI137
(lp138
I18
aI-6
asI138
(lp139
I16
aI-7
asI139
(lp140
I16
aI-7
asI140
(lp141
I26
aI1
asI141
(lp142
I31
aI2
asI142
(lp143
I31
aI2
asI143
(lp144
I31
aI2
asI144
(lp145
I31
aI2
asI145
(lp146
I31
aI2
asI146
(lp147
I31
aI2
asI147
(lp148
I31
aI1
asI148
(lp149
I31
aI1
asI149
(lp150
I31
aI1
asI150
(lp151
I31
aI1
asI151
(lp152
I31
aI1
asI152
(lp153
I31
aI1
asI153
(lp154
I31
aI1
asI154
(lp155
I31
aI1
asI155
(lp156
I31
aI1
asI156
(lp157
I31
aI1
asI157
(lp158
I31
aI1
asI158
(lp159
I31
aI1
asI159
(lp160
I26
aI0
asI160
(lp161
I26
aI0
asI161
(lp162
I26
aI0
asI162
(lp163
I26
aI0
asI163
(lp164
I26
aI0
asI164
(lp165
I26
aI0
asI165
(lp166
I26
aI0
asI166
(lp167
I26
aI0
asI167
(lp168
I26
aI0
asI168
(lp169
I26
aI0
asI169
(lp170
I26
aI0
asI170
(lp171
I18
aI-7
asI171
(lp172
I18
aI-7
asI172
(lp173
I18
aI-7
asI173
(lp174
I18
aI-7
asI174
(lp175
I18
aI-7
asI175
(lp176
I18
aI-7
asI176
(lp177
I18
aI-7
asI177
(lp178
I18
aI-7
asI178
(lp179
I18
aI-7
asI179
(lp180
I18
aI-7
asI180
(lp181
I18
aI-7
asI181
(lp182
I18
aI-7
asI182
(lp183
I18
aI-7
asI183
(lp184
I18
aI-7
asI184
(lp185
I16
aI-8
asI185
(lp186
I16
aI-8
asI186
(lp187
I18
aI-7
asI187
(lp188
I18
aI-7
asI188
(lp189
I17
aI-7
asI189
(lp190
I17
aI-7
asI190
(lp191
I17
aI-7
asI191
(lp192
I17
aI-7
asI192
(lp193
I17
aI-7
asI193
(lp194
I25
aI0
asI194
(lp195
I26
aI1
asI195
(lp196
I26
aI1
asI196
(lp197
I25
aI1
asI197
(lp198
I26
aI1
asI198
(lp199
I25
aI1
asI199
(lp200
I25
aI1
asI200
(lp201
I25
aI1
asI201
(lp202
I25
aI1
asI202
(lp203
I25
aI1
asI203
(lp204
I26
aI1
asI204
(lp205
I26
aI1
asI205
(lp206
I26
aI1
asI206
(lp207
I26
aI1
asI207
(lp208
I25
aI1
asI208
(lp209
I25
aI1
asI209
(lp210
I26
aI1
asI210
(lp211
I26
aI1
asI211
(lp212
I26
aI1
asI212
(lp213
I26
aI1
asI213
(lp214
I26
aI1
asI214
(lp215
I17
aI-6
asI215
(lp216
I26
aI1
asI216
(lp217
I26
aI1
asI217
(lp218
I26
aI1
asI218
(lp219
I26
aI1
asI219
(lp220
I26
aI1
asI220
(lp221
I26
aI1
asI221
(lp222
I26
aI1
asI222
(lp223
I26
aI1
asI223
(lp224
I26
aI1
asI224
(lp225
I26
aI0
asI225
(lp226
I26
aI0
asI226
(lp227
I16
aI-8
asI227
(lp228
I16
aI-8
asI228
(lp229
I16
aI-8
asI229
(lp230
I16
aI-8
asI230
(lp231
I16
aI-8
asI231
(lp232
I16
aI-8
asI232
(lp233
I18
aI-7
asI233
(lp234
I18
aI-7
asI234
(lp235
I18
aI-7
asI235
(lp236
I18
aI-7
asI236
(lp237
I18
aI-7
asI237
(lp238
I18
aI-7
asI238
(lp239
I18
aI-7
asI239
(lp240
I18
aI-7
asI240
(lp241
I18
aI-7
asI241
(lp242
I18
aI-7
asI242
(lp243
I18
aI-7
asI243
(lp244
I18
aI-7
asI244
(lp245
I18
aI-7
asI245
(lp246
I18
aI-7
asI246
(lp247
I18
aI-7
asI247
(lp248
I18
aI-7
asI248
(lp249
I18
aI-7
asI249
(lp250
I18
aI-7
asI250
(lp251
I16
aI-8
asI251
(lp252
I26
aI0
asI252
(lp253
I26
aI1
asI253
(lp254
I26
aI1
asI254
(lp255
I26
aI1
asI255
(lp256
I16
aI-7
asI256
(lp257
I18
aI-7
asI257
(lp258
I18
aI-7
asI258
(lp259
I23
aI-4
asI259
(lp260
I26
aI-1
asI260
(lp261
I26
aI0
asI261
(lp262
I15
aI-11
asI262
(lp263
I15
aI-11
asI263
(lp264
I18
aI-8
asI264
(lp265
I18
aI-9
asI265
(lp266
I19
aI-9
asI266
(lp267
I18
aI-9
asI267
(lp268
I19
aI-9
asI268
(lp269
I19
aI-9
asI269
(lp270
I19
aI-9
asI270
(lp271
I19
aI-9
asI271
(lp272
I19
aI-9
asI272
(lp273
I19
aI-9
asI273
(lp274
I19
aI-9
asI274
(lp275
I19
aI-9
asI275
(lp276
I18
aI-9
asI276
(lp277
I18
aI-9
asI277
(lp278
I18
aI-8
asI278
(lp279
I18
aI-8
asI279
(lp280
I18
aI-8
asI280
(lp281
I18
aI-8
asI281
(lp282
I18
aI-8
asI282
(lp283
I18
aI-8
asI283
(lp284
I18
aI-8
asI284
(lp285
I18
aI-8
asI285
(lp286
I18
aI-8
asI286
(lp287
I18
aI-8
asI287
(lp288
I18
aI-8
asI288
(lp289
I18
aI-7
asI289
(lp290
I18
aI-7
asI290
(lp291
I18
aI-7
asI291
(lp292
I18
aI-7
asI292
(lp293
I18
aI-7
asI293
(lp294
I18
aI-8
asI294
(lp295
I18
aI-8
asI295
(lp296
I18
aI-8
asI296
(lp297
I18
aI-8
asI297
(lp298
I19
aI-8
asI298
(lp299
I19
aI-8
asI299
(lp300
I19
aI-8
asI300
(lp301
I18
aI-9
asI301
(lp302
I19
aI-9
asI302
(lp303
I19
aI-9
asI303
(lp304
I19
aI-9
asI304
(lp305
I18
aI-9
asI305
(lp306
I19
aI-9
asI306
(lp307
I19
aI-9
asI307
(lp308
I18
aI-9
asI308
(lp309
I19
aI-9
asI309
(lp310
I19
aI-9
asI310
(lp311
I18
aI-8
asI311
(lp312
I18
aI-8
asI312
(lp313
I18
aI-8
asI313
(lp314
I18
aI-8
asI314
(lp315
I18
aI-8
asI315
(lp316
I18
aI-8
asI316
(lp317
I18
aI-8
asI317
(lp318
I18
aI-8
asI318
(lp319
I18
aI-8
asI319
(lp320
I18
aI-8
asI320
(lp321
I18
aI-8
asI321
(lp322
I18
aI-8
asI322
(lp323
I18
aI-8
asI323
(lp324
I18
aI-8
asI324
(lp325
I18
aI-8
asI325
(lp326
I18
aI-8
asI326
(lp327
I18
aI-7
asI327
(lp328
I18
aI-7
asI328
(lp329
I18
aI-7
asI329
(lp330
I18
aI-8
asI330
(lp331
I18
aI-7
asI331
(lp332
I18
aI-8
asI332
(lp333
I18
aI-8
asI333
(lp334
I18
aI-8
asI334
(lp335
I18
aI-8
asI335
(lp336
I18
aI-8
asI336
(lp337
I18
aI-8
asI337
(lp338
I31
aI1
asI338
(lp339
I31
aI1
asI339
(lp340
I31
aI1
asI340
(lp341
I31
aI1
asI341
(lp342
I31
aI1
asI342
(lp343
I31
aI1
asI343
(lp344
I31
aI1
asI344
(lp345
I31
aI1
asI345
(lp346
I31
aI1
asI346
(lp347
I31
aI1
asI347
(lp348
I23
aI-4
asI348
(lp349
I31
aI1
asI349
(lp350
I23
aI-4
asI350
(lp351
I23
aI-4
asI351
(lp352
I23
aI-4
asI352
(lp353
I23
aI-4
asI353
(lp354
I23
aI-4
asI354
(lp355
I23
aI-4
asI355
(lp356
I23
aI-4
asI356
(lp357
I23
aI-4
asI357
(lp358
I23
aI-4
asI358
(lp359
I23
aI-4
asI359
(lp360
I23
aI-4
asI360
(lp361
I23
aI-4
asI361
(lp362
I23
aI-4
asI362
(lp363
I23
aI-4
asI363
(lp364
I23
aI-4
asI364
(lp365
I18
aI-8
asI365
(lp366
I18
aI-8
asI366
(lp367
I18
aI-8
asI367
(lp368
I18
aI-8
asI368
(lp369
I18
aI-8
asI369
(lp370
I18
aI-8
asI370
(lp371
I18
aI-8
asI371
(lp372
I18
aI-8
asI372
(lp373
I18
aI-8
asI373
(lp374
I18
aI-8
asI374
(lp375
I18
aI-8
asI375
(lp376
I18
aI-8
asI376
(lp377
I18
aI-8
asI377
(lp378
I18
aI-7
asI378
(lp379
I18
aI-7
asI379
(lp380
I18
aI-8
asI380
(lp381
I18
aI-8
asI381
(lp382
I19
aI-8
asI382
(lp383
I19
aI-8
asI383
(lp384
I19
aI-8
asI384
(lp385
I19
aI-8
asI385
(lp386
I19
aI-9
asI386
(lp387
I19
aI-9
asI387
(lp388
I19
aI-10
asI388
(lp389
I19
aI-11
asI389
(lp390
I19
aI-11
asI390
(lp391
I19
aI-11
asI391
(lp392
I19
aI-11
asI392
(lp393
I19
aI-11
asI393
(lp394
I19
aI-11
asI394
(lp395
I19
aI-10
asI395
(lp396
I19
aI-10
asI396
(lp397
I19
aI-10
asI397
(lp398
I19
aI-10
asI398
(lp399
I19
aI-10
asI399
(lp400
I19
aI-10
asI400
(lp401
I19
aI-9
asI401
(lp402
I19
aI-9
asI402
(lp403
I19
aI-8
asI403
(lp404
I19
aI-8
asI404
(lp405
I19
aI-8
asI405
(lp406
I19
aI-7
asI406
(lp407
I19
aI-7
asI407
(lp408
I19
aI-7
asI408
(lp409
I19
aI-7
asI409
(lp410
I19
aI-7
asI410
(lp411
I19
aI-7
asI411
(lp412
I19
aI-7
asI412
(lp413
I24
aI-4
asI413
(lp414
I20
aI-9
asI414
(lp415
I20
aI-9
asI415
(lp416
I20
aI-9
asI416
(lp417
I20
aI-9
asI417
(lp418
I20
aI-9
asI418
(lp419
I20
aI-9
asI419
(lp420
I20
aI-8
asI420
(lp421
I20
aI-8
asI421
(lp422
I19
aI-9
asI422
(lp423
I19
aI-8
asI423
(lp424
I19
aI-8
asI424
(lp425
I19
aI-9
asI425
(lp426
I19
aI-9
asI426
(lp427
I20
aI-9
asI427
(lp428
I20
aI-9
asI428
(lp429
I20
aI-9
asI429
(lp430
I20
aI-9
asI430
(lp431
I19
aI-9
asI431
(lp432
I19
aI-9
asI432
(lp433
I19
aI-9
asI433
(lp434
I19
aI-9
asI434
(lp435
I19
aI-9
asI435
(lp436
I19
aI-9
asI436
(lp437
I19
aI-9
asI437
(lp438
I19
aI-9
asI438
(lp439
I19
aI-9
asI439
(lp440
I19
aI-9
asI440
(lp441
I19
aI-9
asI441
(lp442
I19
aI-9
asI442
(lp443
I19
aI-9
asI443
(lp444
I19
aI-9
asI444
(lp445
I19
aI-9
asI445
(lp446
I19
aI-9
asI446
(lp447
I19
aI-9
asI447
(lp448
I19
aI-9
asI448
(lp449
I19
aI-9
asI449
(lp450
I-6
aI-10
asI450
(lp451
I-5
aI-10
asI451
(lp452
I19
aI-9
asI452
(lp453
I19
aI-9
asI453
(lp454
I19
aI-9
asI454
(lp455
I19
aI-9
asI455
(lp456
I19
aI-9
asI456
(lp457
I19
aI-9
asI457
(lp458
I19
aI-9
asI458
(lp459
I19
aI-9
asI459
(lp460
I19
aI-9
asI460
(lp461
I19
aI-9
asI461
(lp462
I19
aI-9
asI462
(lp463
I19
aI-9
asI463
(lp464
I19
aI-9
asI464
(lp465
I19
aI-9
asI465
(lp466
I19
aI-9
asI466
(lp467
I19
aI-9
asI467
(lp468
I19
aI-9
asI468
(lp469
I19
aI-9
asI469
(lp470
I19
aI-9
asI470
(lp471
I19
aI-9
asI471
(lp472
I19
aI-9
asI472
(lp473
I19
aI-9
asI473
(lp474
I19
aI-9
asI474
(lp475
I19
aI-9
asI475
(lp476
I19
aI-9
asI476
(lp477
I19
aI-9
asI477
(lp478
I19
aI-9
asI478
(lp479
I19
aI-9
asI479
(lp480
I19
aI-9
asI480
(lp481
I19
aI-9
asI481
(lp482
I19
aI-9
asI482
(lp483
I19
aI-9
asI483
(lp484
I19
aI-9
asI484
(lp485
I19
aI-9
asI485
(lp486
I19
aI-9
asI486
(lp487
I19
aI-9
asI487
(lp488
I19
aI-9
asI488
(lp489
I19
aI-9
asI489
(lp490
I19
aI-9
asI490
(lp491
I19
aI-9
asI491
(lp492
I19
aI-9
asI492
(lp493
I19
aI-9
asI493
(lp494
I19
aI-9
asI494
(lp495
I19
aI-9
asI495
(lp496
I19
aI-9
asI496
(lp497
I19
aI-9
asI497
(lp498
I19
aI-9
asI498
(lp499
I19
aI-9
asI499
(lp500
I19
aI-9
asI500
(lp501
I19
aI-9
asI501
(lp502
I19
aI-9
asI502
(lp503
I24
aI-5
asI503
(lp504
I24
aI-6
asI504
(lp505
I24
aI-6
asI505
(lp506
I24
aI-6
asI506
(lp507
I24
aI-7
asI507
(lp508
I24
aI-8
asI508
(lp509
I25
aI-8
asI509
(lp510
I24
aI-8
asI510
(lp511
I25
aI-8
asI511
(lp512
I25
aI-8
asI512
(lp513
I25
aI-8
asI513
(lp514
I25
aI-8
asI514
(lp515
I25
aI-8
asI515
(lp516
I25
aI-8
asI516
(lp517
I24
aI-7
asI517
(lp518
I24
aI-7
asI518
(lp519
I24
aI-7
asI519
(lp520
I24
aI-7
asI520
(lp521
I24
aI-7
asI521
(lp522
I24
aI-7
asI522
(lp523
I24
aI-6
asI523
(lp524
I24
aI-6
asI524
(lp525
I24
aI-5
asI525
(lp526
I24
aI-6
asI526
(lp527
I24
aI-6
asI527
(lp528
I20
aI-11
asI528
(lp529
I20
aI-11
asI529
(lp530
I20
aI-11
asI530
(lp531
I20
aI-11
asI531
(lp532
I20
aI-11
asI532
(lp533
I20
aI-10
asI533
(lp534
I20
aI-10
asI534
(lp535
I20
aI-10
asI535
(lp536
I20
aI-10
asI536
(lp537
I20
aI-10
asI537
(lp538
I20
aI-10
asI538
(lp539
I20
aI-10
asI539
(lp540
I20
aI-10
asI540
(lp541
I20
aI-10
asI541
(lp542
I20
aI-10
asI542
(lp543
I20
aI-10
asI543
(lp544
I20
aI-10
asI544
(lp545
I19
aI-10
asI545
(lp546
I20
aI-10
asI546
(lp547
I20
aI-10
asI547
(lp548
I20
aI-10
asI548
(lp549
I20
aI-10
asI549
(lp550
I20
aI-10
asI550
(lp551
I20
aI-10
asI551
(lp552
I20
aI-10
asI552
(lp553
I20
aI-10
asI553
(lp554
I20
aI-10
asI554
(lp555
I20
aI-10
asI555
(lp556
I20
aI-10
asI556
(lp557
I20
aI-10
asI557
(lp558
I20
aI-10
asI558
(lp559
I20
aI-10
asI559
(lp560
I20
aI-10
asI560
(lp561
I20
aI-10
asI561
(lp562
I20
aI-10
asI562
(lp563
I20
aI-10
asI563
(lp564
I20
aI-10
asI564
(lp565
I20
aI-10
asI565
(lp566
I20
aI-10
asI566
(lp567
I20
aI-10
asI567
(lp568
I20
aI-10
asI568
(lp569
I20
aI-10
asI569
(lp570
I20
aI-10
asI570
(lp571
I20
aI-10
asI571
(lp572
I20
aI-10
asI572
(lp573
I20
aI-10
asI573
(lp574
I20
aI-10
asI574
(lp575
I20
aI-10
asI575
(lp576
I20
aI-10
asI576
(lp577
I20
aI-10
asI577
(lp578
I20
aI-10
asI578
(lp579
I20
aI-10
asI579
(lp580
I20
aI-10
asI580
(lp581
I20
aI-10
asI581
(lp582
I20
aI-10
asI582
(lp583
I20
aI-10
asI583
(lp584
I20
aI-10
asI584
(lp585
I20
aI-10
asI585
(lp586
I20
aI-10
asI586
(lp587
I20
aI-10
asI587
(lp588
I20
aI-10
asI588
(lp589
I20
aI-10
asI589
(lp590
I20
aI-11
asI590
(lp591
I20
aI-11
asI591
(lp592
I20
aI-10
asI592
(lp593
I20
aI-10
asI593
(lp594
I20
aI-10
asI594
(lp595
I20
aI-10
asI595
(lp596
I24
aI-6
asI596
(lp597
I24
aI-7
asI597
(lp598
I20
aI-11
asI598
(lp599
I20
aI-11
asI599
(lp600
I20
aI-11
asI600
(lp601
I20
aI-11
asI601
(lp602
I20
aI-11
asI602
(lp603
I20
aI-10
asI603
(lp604
I20
aI-10
asI604
(lp605
I20
aI-10
asI605
(lp606
I20
aI-10
asI606
(lp607
I20
aI-10
asI607
(lp608
I20
aI-11
asI608
(lp609
I20
aI-11
asI609
(lp610
I20
aI-11
asI610
(lp611
I20
aI-11
asI611
(lp612
I20
aI-11
asI612
(lp613
I20
aI-11
asI613
(lp614
I20
aI-10
asI614
(lp615
I20
aI-10
asI615
(lp616
I20
aI-10
asI616
(lp617
I20
aI-10
asI617
(lp618
I20
aI-10
asI618
(lp619
I20
aI-10
asI619
(lp620
I20
aI-10
asI620
(lp621
I20
aI-10
asI621
(lp622
I20
aI-11
asI622
(lp623
I20
aI-11
asI623
(lp624
I20
aI-10
asI624
(lp625
I20
aI-10
asI625
(lp626
I20
aI-10
asI626
(lp627
I20
aI-10
asI627
(lp628
I20
aI-10
asI628
(lp629
I20
aI-10
asI629
(lp630
I20
aI-10
asI630
(lp631
I20
aI-10
asI631
(lp632
I20
aI-10
asI632
(lp633
I20
aI-10
asI633
(lp634
I20
aI-10
asI634
(lp635
I20
aI-10
asI635
(lp636
I20
aI-10
asI636
(lp637
I20
aI-10
asI637
(lp638
I20
aI-10
asI638
(lp639
I20
aI-10
asI639
(lp640
I20
aI-10
asI640
(lp641
I20
aI-10
asI641
(lp642
I20
aI-10
asI642
(lp643
I20
aI-10
asI643
(lp644
I20
aI-11
asI644
(lp645
I20
aI-10
asI645
(lp646
I20
aI-10
asI646
(lp647
I20
aI-11
asI647
(lp648
I20
aI-11
asI648
(lp649
I20
aI-11
asI649
(lp650
I20
aI-10
asI650
(lp651
I20
aI-10
asI651
(lp652
I20
aI-10
asI652
(lp653
I20
aI-10
asI653
(lp654
I20
aI-10
asI654
(lp655
I20
aI-10
asI655
(lp656
I20
aI-10
asI656
(lp657
I20
aI-10
asI657
(lp658
I20
aI-10
asI658
(lp659
I20
aI-11
asI659
(lp660
I20
aI-10
asI660
(lp661
I20
aI-11
asI661
(lp662
I20
aI-10
asI662
(lp663
I20
aI-10
asI663
(lp664
I20
aI-11
asI664
(lp665
I20
aI-11
asI665
(lp666
I20
aI-11
asI666
(lp667
I20
aI-11
asI667
(lp668
I20
aI-10
asI668
(lp669
I20
aI-10
asI669
(lp670
I20
aI-10
asI670
(lp671
I20
aI-10
asI671
(lp672
I20
aI-11
asI672
(lp673
I20
aI-11
asI673
(lp674
I20
aI-10
asI674
(lp675
I20
aI-10
asI675
(lp676
I20
aI-11
as.